target datalayout = "e-m:e-p270:32:32-p271:32:32-p272:64:64-i64:64-i128:128-f80:128-n8:16:32:64-S128"
target triple = "x86_64-pc-linux-gnu"

%struct.CVodeMemRec = type { ptr, double, ptr, ptr, i32, i32, double, double, ptr, i32, i32, ptr, ptr, i32, [13 x ptr], ptr, ptr, ptr, ptr, ptr, ptr, ptr, ptr, ptr, i32, i32, double, i32, i32, i32, i32, i32, double, double, double, double, double, double, double, double, [14 x double], [6 x double], [13 x double], double, double, double, double, double, double, double, i32, double, i32, i64, i32, i32, i32, double, double, double, double, double, double, double, double, double, double, double, double, i64, i32, i64, i64, i64, i64, i64, i64, i64, i32, double, double, double, i64, i64, i64, i64, ptr, i32, ptr, i32, ptr, ptr, ptr, ptr, ptr, i64, double, i32, i64, double, double, double, i32, double, i32, i32, i32, i32, i32, ptr, i64, i32, [6 x [4 x double]], i32, i64, ptr, i32, ptr, ptr, double, double, double, ptr, ptr, ptr, double, double, i32, i32, i64, ptr, i32, ptr, i32, i32, [13 x double], [13 x double], [13 x ptr], i32 }

; Function Attrs: nounwind uwtable
define void @CVodeFree(ptr noundef %0) #0 {
  %2 = alloca ptr, align 8
  %3 = alloca ptr, align 8
  %4 = alloca i32, align 4
  store ptr %0, ptr %2, align 8, !tbaa !89
  call void @llvm.lifetime.start.p0(i64 8, ptr %3) #10
  %5 = load ptr, ptr %2, align 8, !tbaa !89
  %6 = load ptr, ptr %5, align 8, !tbaa !89
  %7 = icmp eq ptr %6, null
  br i1 %7, label %8, label %9

8:                                                ; preds = %1
  store i32 1, ptr %4, align 4
  br label %86

9:                                                ; preds = %1
  %10 = load ptr, ptr %2, align 8, !tbaa !89
  %11 = load ptr, ptr %10, align 8, !tbaa !89
  store ptr %11, ptr %3, align 8, !tbaa !10
  %12 = load ptr, ptr %3, align 8, !tbaa !10
  call void @cvFreeVectors(ptr noundef %12)
  %13 = load ptr, ptr %3, align 8, !tbaa !10
  %14 = getelementptr inbounds nuw %struct.CVodeMemRec, ptr %13, i32 0, i32 87
  %15 = load i32, ptr %14, align 8, !tbaa !79
  %16 = icmp ne i32 %15, 0
  br i1 %16, label %17, label %26

17:                                               ; preds = %9
  %18 = load ptr, ptr %3, align 8, !tbaa !10
  %19 = getelementptr inbounds nuw %struct.CVodeMemRec, ptr %18, i32 0, i32 86
  %20 = load ptr, ptr %19, align 8, !tbaa !78
  %21 = call i32 @SUNNonlinSolFree(ptr noundef %20)
  %22 = load ptr, ptr %3, align 8, !tbaa !10
  %23 = getelementptr inbounds nuw %struct.CVodeMemRec, ptr %22, i32 0, i32 87
  store i32 0, ptr %23, align 8, !tbaa !79
  %24 = load ptr, ptr %3, align 8, !tbaa !10
  %25 = getelementptr inbounds nuw %struct.CVodeMemRec, ptr %24, i32 0, i32 86
  store ptr null, ptr %25, align 8, !tbaa !78
  br label %26

26:                                               ; preds = %17, %9
  %27 = load ptr, ptr %3, align 8, !tbaa !10
  %28 = getelementptr inbounds nuw %struct.CVodeMemRec, ptr %27, i32 0, i32 93
  %29 = load ptr, ptr %28, align 8, !tbaa !111
  %30 = icmp ne ptr %29, null
  br i1 %30, label %31, label %37

31:                                               ; preds = %26
  %32 = load ptr, ptr %3, align 8, !tbaa !10
  %33 = getelementptr inbounds nuw %struct.CVodeMemRec, ptr %32, i32 0, i32 93
  %34 = load ptr, ptr %33, align 8, !tbaa !111
  %35 = load ptr, ptr %3, align 8, !tbaa !10
  %36 = call i32 %34(ptr noundef %35)
  br label %37

37:                                               ; preds = %31, %26
  %38 = load ptr, ptr %3, align 8, !tbaa !10
  %39 = getelementptr inbounds nuw %struct.CVodeMemRec, ptr %38, i32 0, i32 116
  %40 = load i32, ptr %39, align 8, !tbaa !66
  %41 = icmp sgt i32 %40, 0
  br i1 %41, label %42, label %73

42:                                               ; preds = %37
  %43 = load ptr, ptr %3, align 8, !tbaa !10
  %44 = getelementptr inbounds nuw %struct.CVodeMemRec, ptr %43, i32 0, i32 122
  %45 = load ptr, ptr %44, align 8, !tbaa !60
  call void @free(ptr noundef %45) #10
  %46 = load ptr, ptr %3, align 8, !tbaa !10
  %47 = getelementptr inbounds nuw %struct.CVodeMemRec, ptr %46, i32 0, i32 122
  store ptr null, ptr %47, align 8, !tbaa !60
  %48 = load ptr, ptr %3, align 8, !tbaa !10
  %49 = getelementptr inbounds nuw %struct.CVodeMemRec, ptr %48, i32 0, i32 123
  %50 = load ptr, ptr %49, align 8, !tbaa !61
  call void @free(ptr noundef %50) #10
  %51 = load ptr, ptr %3, align 8, !tbaa !10
  %52 = getelementptr inbounds nuw %struct.CVodeMemRec, ptr %51, i32 0, i32 123
  store ptr null, ptr %52, align 8, !tbaa !61
  %53 = load ptr, ptr %3, align 8, !tbaa !10
  %54 = getelementptr inbounds nuw %struct.CVodeMemRec, ptr %53, i32 0, i32 124
  %55 = load ptr, ptr %54, align 8, !tbaa !62
  call void @free(ptr noundef %55) #10
  %56 = load ptr, ptr %3, align 8, !tbaa !10
  %57 = getelementptr inbounds nuw %struct.CVodeMemRec, ptr %56, i32 0, i32 124
  store ptr null, ptr %57, align 8, !tbaa !62
  %58 = load ptr, ptr %3, align 8, !tbaa !10
  %59 = getelementptr inbounds nuw %struct.CVodeMemRec, ptr %58, i32 0, i32 117
  %60 = load ptr, ptr %59, align 8, !tbaa !63
  call void @free(ptr noundef %60) #10
  %61 = load ptr, ptr %3, align 8, !tbaa !10
  %62 = getelementptr inbounds nuw %struct.CVodeMemRec, ptr %61, i32 0, i32 117
  store ptr null, ptr %62, align 8, !tbaa !63
  %63 = load ptr, ptr %3, align 8, !tbaa !10
  %64 = getelementptr inbounds nuw %struct.CVodeMemRec, ptr %63, i32 0, i32 118
  %65 = load ptr, ptr %64, align 8, !tbaa !64
  call void @free(ptr noundef %65) #10
  %66 = load ptr, ptr %3, align 8, !tbaa !10
  %67 = getelementptr inbounds nuw %struct.CVodeMemRec, ptr %66, i32 0, i32 118
  store ptr null, ptr %67, align 8, !tbaa !64
  %68 = load ptr, ptr %3, align 8, !tbaa !10
  %69 = getelementptr inbounds nuw %struct.CVodeMemRec, ptr %68, i32 0, i32 130
  %70 = load ptr, ptr %69, align 8, !tbaa !67
  call void @free(ptr noundef %70) #10
  %71 = load ptr, ptr %3, align 8, !tbaa !10
  %72 = getelementptr inbounds nuw %struct.CVodeMemRec, ptr %71, i32 0, i32 130
  store ptr null, ptr %72, align 8, !tbaa !67
  br label %73

73:                                               ; preds = %42, %37
  %74 = load ptr, ptr %3, align 8, !tbaa !10
  %75 = getelementptr inbounds nuw %struct.CVodeMemRec, ptr %74, i32 0, i32 132
  %76 = load ptr, ptr %75, align 8, !tbaa !69
  %77 = icmp ne ptr %76, null
  br i1 %77, label %78, label %82

78:                                               ; preds = %73
  %79 = load ptr, ptr %3, align 8, !tbaa !10
  %80 = getelementptr inbounds nuw %struct.CVodeMemRec, ptr %79, i32 0, i32 132
  %81 = call i32 @cvProjFree(ptr noundef %80)
  br label %82

82:                                               ; preds = %78, %73
  %83 = load ptr, ptr %2, align 8, !tbaa !89
  %84 = load ptr, ptr %83, align 8, !tbaa !89
  call void @free(ptr noundef %84) #10
  %85 = load ptr, ptr %2, align 8, !tbaa !89
  store ptr null, ptr %85, align 8, !tbaa !89
  store i32 0, ptr %4, align 4
  br label %86

86:                                               ; preds = %82, %8
  call void @llvm.lifetime.end.p0(i64 8, ptr %3) #10
  %87 = load i32, ptr %4, align 4
  switch i32 %87, label %89 [
    i32 0, label %88
    i32 1, label %88
  ]

88:                                               ; preds = %86, %86
  ret void

89:                                               ; preds = %86
  unreachable
}