; Function Attrs: nounwind uwtable
define void @CVodeFree(ptr noundef captures(none) %0) local_unnamed_addr #0 {
  %2 = load ptr, ptr %0, align 8, !tbaa !178
  %3 = icmp eq ptr %2, null
  br i1 %3, label %40, label %4

4:                                                ; preds = %1
  tail call fastcc void @cvFreeVectors(ptr noundef %2)
  %5 = getelementptr inbounds nuw i8, ptr %2, i64 984
  %6 = load i32, ptr %5, align 8, !tbaa !82
  %.not = icmp eq i32 %6, 0
  br i1 %.not, label %11, label %7

7:                                                ; preds = %4
  %8 = getelementptr inbounds nuw i8, ptr %2, i64 976
  %9 = load ptr, ptr %8, align 8, !tbaa !155
  %10 = tail call i32 @SUNNonlinSolFree(ptr noundef %9) #13
  store i32 0, ptr %5, align 8, !tbaa !82
  store ptr null, ptr %8, align 8, !tbaa !155
  br label %11

11:                                               ; preds = %7, %4
  %12 = getelementptr inbounds nuw i8, ptr %2, i64 1032
  %13 = load ptr, ptr %12, align 8, !tbaa !179
  %.not28 = icmp eq ptr %13, null
  br i1 %.not28, label %16, label %14

14:                                               ; preds = %11
  %15 = tail call i32 %13(ptr noundef nonnull %2) #13
  br label %16

16:                                               ; preds = %14, %11
  %17 = getelementptr inbounds nuw i8, ptr %2, i64 1384
  %18 = load i32, ptr %17, align 8, !tbaa !109
  %19 = icmp sgt i32 %18, 0
  br i1 %19, label %20, label %33

20:                                               ; preds = %16
  %21 = getelementptr inbounds nuw i8, ptr %2, i64 1432
  %22 = load ptr, ptr %21, align 8, !tbaa !110
  tail call void @free(ptr noundef %22) #13
  store ptr null, ptr %21, align 8, !tbaa !110
  %23 = getelementptr inbounds nuw i8, ptr %2, i64 1440
  %24 = load ptr, ptr %23, align 8, !tbaa !111
  tail call void @free(ptr noundef %24) #13
  store ptr null, ptr %23, align 8, !tbaa !111
  %25 = getelementptr inbounds nuw i8, ptr %2, i64 1448
  %26 = load ptr, ptr %25, align 8, !tbaa !112
  tail call void @free(ptr noundef %26) #13
  store ptr null, ptr %25, align 8, !tbaa !112
  %27 = getelementptr inbounds nuw i8, ptr %2, i64 1392
  %28 = load ptr, ptr %27, align 8, !tbaa !113
  tail call void @free(ptr noundef %28) #13
  store ptr null, ptr %27, align 8, !tbaa !113
  %29 = getelementptr inbounds nuw i8, ptr %2, i64 1400
  %30 = load ptr, ptr %29, align 8, !tbaa !114
  tail call void @free(ptr noundef %30) #13
  store ptr null, ptr %29, align 8, !tbaa !114
  %31 = getelementptr inbounds nuw i8, ptr %2, i64 1488
  %32 = load ptr, ptr %31, align 8, !tbaa !115
  tail call void @free(ptr noundef %32) #13
  store ptr null, ptr %31, align 8, !tbaa !115
  br label %33

33:                                               ; preds = %20, %16
  %34 = getelementptr inbounds nuw i8, ptr %2, i64 1504
  %35 = load ptr, ptr %34, align 8, !tbaa !127
  %.not29 = icmp eq ptr %35, null
  br i1 %.not29, label %38, label %36

36:                                               ; preds = %33
  %37 = tail call i32 @cvProjFree(ptr noundef nonnull %34) #13
  br label %38

38:                                               ; preds = %36, %33
  %39 = load ptr, ptr %0, align 8, !tbaa !178
  tail call void @free(ptr noundef %39) #13
  store ptr null, ptr %0, align 8, !tbaa !178
  br label %40

40:                                               ; preds = %1, %38
  ret void
}